target datalayout = "e-m:e-p270:32:32-p271:32:32-p272:64:64-i64:64-i128:128-f80:128-n8:16:32:64-S128"
target triple = "x86_64-pc-linux-gnu"

%struct.CipherSuiteInfo = type { ptr, ptr, i8, i8, i8 }

; Function Attrs: nounwind uwtable
define i32 @wolfSSL_get_ciphers(ptr noundef %0, i32 noundef %1) #0 {
  %3 = alloca i32, align 4
  %4 = alloca ptr, align 8
  %5 = alloca i32, align 4
  %6 = alloca ptr, align 8
  %7 = alloca i32, align 4
  %8 = alloca i32, align 4
  %9 = alloca i32, align 4
  %10 = alloca i32, align 4
  store ptr %0, ptr %4, align 8, !tbaa !21
  store i32 %1, ptr %5, align 4, !tbaa !7
  call void @llvm.lifetime.start.p0(i64 8, ptr %6) #9
  %11 = call ptr @GetCipherNames()
  store ptr %11, ptr %6, align 8, !tbaa !141
  call void @llvm.lifetime.start.p0(i64 4, ptr %7) #9
  %12 = call i32 @GetCipherNamesSize()
  store i32 %12, ptr %7, align 4, !tbaa !7
  call void @llvm.lifetime.start.p0(i64 4, ptr %8) #9
  %13 = load ptr, ptr %4, align 8, !tbaa !21
  %14 = icmp eq ptr %13, null
  br i1 %14, label %18, label %15

15:                                               ; preds = %2
  %16 = load i32, ptr %5, align 4, !tbaa !7
  %17 = icmp sle i32 %16, 0
  br i1 %17, label %18, label %19

18:                                               ; preds = %15, %2
  store i32 -173, ptr %3, align 4
  store i32 1, ptr %9, align 4
  br label %74

19:                                               ; preds = %15
  store i32 0, ptr %8, align 4, !tbaa !7
  br label %20

20:                                               ; preds = %70, %19
  %21 = load i32, ptr %8, align 4, !tbaa !7
  %22 = load i32, ptr %7, align 4, !tbaa !7
  %23 = icmp slt i32 %21, %22
  br i1 %23, label %24, label %73

24:                                               ; preds = %20
  call void @llvm.lifetime.start.p0(i64 4, ptr %10) #9
  %25 = load ptr, ptr %6, align 8, !tbaa !141
  %26 = load i32, ptr %8, align 4, !tbaa !7
  %27 = sext i32 %26 to i64
  %28 = getelementptr inbounds %struct.CipherSuiteInfo, ptr %25, i64 %27
  %29 = getelementptr inbounds nuw %struct.CipherSuiteInfo, ptr %28, i32 0, i32 0
  %30 = load ptr, ptr %29, align 8, !tbaa !143
  %31 = call i64 @strlen(ptr noundef %30) #10
  %32 = trunc i64 %31 to i32
  store i32 %32, ptr %10, align 4, !tbaa !7
  %33 = load i32, ptr %10, align 4, !tbaa !7
  %34 = add nsw i32 %33, 1
  %35 = load i32, ptr %5, align 4, !tbaa !7
  %36 = icmp slt i32 %34, %35
  br i1 %36, label %37, label %65

37:                                               ; preds = %24
  %38 = load ptr, ptr %4, align 8, !tbaa !21
  %39 = load ptr, ptr %6, align 8, !tbaa !141
  %40 = load i32, ptr %8, align 4, !tbaa !7
  %41 = sext i32 %40 to i64
  %42 = getelementptr inbounds %struct.CipherSuiteInfo, ptr %39, i64 %41
  %43 = getelementptr inbounds nuw %struct.CipherSuiteInfo, ptr %42, i32 0, i32 0
  %44 = load ptr, ptr %43, align 8, !tbaa !143
  %45 = load i32, ptr %5, align 4, !tbaa !7
  %46 = sext i32 %45 to i64
  %47 = call ptr @strncpy(ptr noundef %38, ptr noundef %44, i64 noundef %46) #9
  %48 = load i32, ptr %10, align 4, !tbaa !7
  %49 = load ptr, ptr %4, align 8, !tbaa !21
  %50 = sext i32 %48 to i64
  %51 = getelementptr inbounds i8, ptr %49, i64 %50
  store ptr %51, ptr %4, align 8, !tbaa !21
  %52 = load i32, ptr %8, align 4, !tbaa !7
  %53 = load i32, ptr %7, align 4, !tbaa !7
  %54 = sub nsw i32 %53, 1
  %55 = icmp slt i32 %52, %54
  br i1 %55, label %56, label %59

56:                                               ; preds = %37
  %57 = load ptr, ptr %4, align 8, !tbaa !21
  %58 = getelementptr inbounds nuw i8, ptr %57, i32 1
  store ptr %58, ptr %4, align 8, !tbaa !21
  store i8 58, ptr %57, align 1, !tbaa !20
  br label %59

59:                                               ; preds = %56, %37
  %60 = load ptr, ptr %4, align 8, !tbaa !21
  store i8 0, ptr %60, align 1, !tbaa !20
  %61 = load i32, ptr %10, align 4, !tbaa !7
  %62 = add nsw i32 %61, 1
  %63 = load i32, ptr %5, align 4, !tbaa !7
  %64 = sub nsw i32 %63, %62
  store i32 %64, ptr %5, align 4, !tbaa !7
  br label %66

65:                                               ; preds = %24
  store i32 -132, ptr %3, align 4
  store i32 1, ptr %9, align 4
  br label %67

66:                                               ; preds = %59
  store i32 0, ptr %9, align 4
  br label %67

67:                                               ; preds = %66, %65
  call void @llvm.lifetime.end.p0(i64 4, ptr %10) #9
  %68 = load i32, ptr %9, align 4
  switch i32 %68, label %74 [
    i32 0, label %69
  ]

69:                                               ; preds = %67
  br label %70

70:                                               ; preds = %69
  %71 = load i32, ptr %8, align 4, !tbaa !7
  %72 = add nsw i32 %71, 1
  store i32 %72, ptr %8, align 4, !tbaa !7
  br label %20, !llvm.loop !145

73:                                               ; preds = %20
  store i32 1, ptr %3, align 4
  store i32 1, ptr %9, align 4
  br label %74

74:                                               ; preds = %73, %67, %18
  call void @llvm.lifetime.end.p0(i64 4, ptr %8) #9
  call void @llvm.lifetime.end.p0(i64 4, ptr %7) #9
  call void @llvm.lifetime.end.p0(i64 8, ptr %6) #9
  %75 = load i32, ptr %3, align 4
  ret i32 %75
}