; Function Attrs: nounwind uwtable
define range(i32 -173, 2) i32 @wolfSSL_get_ciphers(ptr noundef %0, i32 noundef %1) local_unnamed_addr #0 {
  %3 = tail call ptr @GetCipherNames() #22
  %4 = tail call i32 @GetCipherNamesSize() #22
  %5 = icmp eq ptr %0, null
  %6 = icmp slt i32 %1, 1
  %or.cond = or i1 %5, %6
  br i1 %or.cond, label %.loopexit, label %.preheader

.preheader:                                       ; preds = %2
  %7 = icmp sgt i32 %4, 0
  br i1 %7, label %.lr.ph, label %.loopexit

.lr.ph:                                           ; preds = %.preheader
  %8 = add nsw i32 %4, -1
  %9 = zext nneg i32 %8 to i64
  %wide.trip.count = zext nneg i32 %4 to i64
  br label %10

10:                                               ; preds = %.lr.ph, %25
  %indvars.iv = phi i64 [ 0, %.lr.ph ], [ %indvars.iv.next, %25 ]
  %.02539 = phi ptr [ %0, %.lr.ph ], [ %.126, %25 ]
  %.02838 = phi i32 [ %1, %.lr.ph ], [ %26, %25 ]
  %11 = getelementptr inbounds nuw %struct.CipherSuiteInfo, ptr %3, i64 %indvars.iv
  %12 = load ptr, ptr %11, align 8, !tbaa !121
  %13 = tail call i64 @strlen(ptr noundef nonnull dereferenceable(1) %12) #23
  %14 = trunc i64 %13 to i32
  %15 = add nsw i32 %14, 1
  %16 = icmp slt i32 %15, %.02838
  br i1 %16, label %17, label %.loopexit

17:                                               ; preds = %10
  %18 = sext i32 %.02838 to i64
  %19 = tail call ptr @strncpy(ptr noundef nonnull %.02539, ptr noundef nonnull %12, i64 noundef %18) #22
  %sext = shl i64 %13, 32
  %20 = ashr exact i64 %sext, 32
  %21 = getelementptr inbounds i8, ptr %.02539, i64 %20
  %22 = icmp samesign ult i64 %indvars.iv, %9
  br i1 %22, label %23, label %25

23:                                               ; preds = %17
  %24 = getelementptr inbounds nuw i8, ptr %21, i64 1
  store i8 58, ptr %21, align 1, !tbaa !43
  br label %25

25:                                               ; preds = %17, %23
  %.126 = phi ptr [ %24, %23 ], [ %21, %17 ]
  store i8 0, ptr %.126, align 1, !tbaa !43
  %26 = sub nsw i32 %.02838, %15
  %indvars.iv.next = add nuw nsw i64 %indvars.iv, 1
  %exitcond.not = icmp eq i64 %indvars.iv.next, %wide.trip.count
  br i1 %exitcond.not, label %.loopexit, label %10, !llvm.loop !123

.loopexit:                                        ; preds = %25, %10, %.preheader, %2
  %.0 = phi i32 [ -173, %2 ], [ 1, %.preheader ], [ 1, %25 ], [ -132, %10 ]
  ret i32 %.0
}